; Function Attrs: nounwind uwtable
define dso_local void @ustr_u32cat(ptr noundef captures(none) %0, i32 noundef %1, ptr noundef captures(none) %2) local_unnamed_addr #1 {
  %4 = icmp sgt i32 %1, 1114111
  br i1 %4, label %5, label %6

5:                                                ; preds = %3
  store i32 12, ptr %2, align 4, !tbaa !4
  br label %ustr_ucat.exit17

6:                                                ; preds = %3
  %7 = icmp sgt i32 %1, 65535
  br i1 %7, label %8, label %70

8:                                                ; preds = %6
  %9 = lshr i32 %1, 10
  %10 = trunc i32 %9 to i16
  %11 = add nuw nsw i16 %10, -10304
  %12 = load i32, ptr %2, align 4, !tbaa !4
  %13 = icmp sgt i32 %12, 0
  br i1 %13, label %ustr_ucat.exit17, label %14

14:                                               ; preds = %8
  %15 = getelementptr inbounds nuw i8, ptr %0, i64 12
  %16 = load i32, ptr %15, align 4, !tbaa !13
  %17 = getelementptr inbounds nuw i8, ptr %0, i64 8
  %18 = load i32, ptr %17, align 8, !tbaa !12
  %.not.i = icmp sgt i32 %16, %18
  %.pre.i = load ptr, ptr %0, align 8, !tbaa !8
  br i1 %.not.i, label %ustr_ucat.exit, label %19

19:                                               ; preds = %14
  %20 = icmp slt i32 %18, 127
  %21 = shl nuw nsw i32 %18, 1
  %22 = add nuw nsw i32 %21, 129
  %23 = and i32 %22, 2147483520
  %24 = select i1 %20, i32 128, i32 %23
  %25 = shl nuw i32 %24, 1
  %26 = or disjoint i32 %25, 2
  %27 = zext i32 %26 to i64
  %28 = tail call ptr @uprv_realloc_77(ptr noundef %.pre.i, i64 noundef %27) #9
  store ptr %28, ptr %0, align 8, !tbaa !8
  %29 = icmp eq ptr %28, null
  br i1 %29, label %30, label %ustr_resize.exit.i

30:                                               ; preds = %19
  store i32 7, ptr %2, align 4, !tbaa !4
  store i32 0, ptr %17, align 8, !tbaa !12
  br label %ustr_resize.exit.i

ustr_resize.exit.i:                               ; preds = %30, %19
  %.sink.i = phi i32 [ 0, %30 ], [ %24, %19 ]
  store i32 %.sink.i, ptr %15, align 4, !tbaa !13
  %31 = load i32, ptr %2, align 4, !tbaa !4
  %32 = icmp sgt i32 %31, 0
  br i1 %32, label %ustr_ucat.exit17, label %ustr_resize.exit._crit_edge.i

ustr_resize.exit._crit_edge.i:                    ; preds = %ustr_resize.exit.i
  %.pre13.i = load i32, ptr %17, align 8, !tbaa !12
  br label %ustr_ucat.exit

ustr_ucat.exit:                                   ; preds = %14, %ustr_resize.exit._crit_edge.i
  %33 = phi i32 [ %18, %14 ], [ %.pre13.i, %ustr_resize.exit._crit_edge.i ]
  %34 = phi ptr [ %.pre.i, %14 ], [ %28, %ustr_resize.exit._crit_edge.i ]
  %35 = sext i32 %33 to i64
  %36 = getelementptr inbounds i16, ptr %34, i64 %35
  store i16 %11, ptr %36, align 2
  %37 = load i32, ptr %17, align 8, !tbaa !12
  %38 = add nsw i32 %37, 1
  store i32 %38, ptr %17, align 8, !tbaa !12
  %39 = load ptr, ptr %0, align 8, !tbaa !8
  %40 = sext i32 %38 to i64
  %41 = getelementptr inbounds i16, ptr %39, i64 %40
  store i16 0, ptr %41, align 2, !tbaa !14
  %.pr = load i32, ptr %2, align 4, !tbaa !4
  %42 = trunc i32 %1 to i16
  %43 = and i16 %42, 1023
  %44 = or disjoint i16 %43, -9216
  %45 = icmp sgt i32 %.pr, 0
  br i1 %45, label %ustr_ucat.exit17, label %46

46:                                               ; preds = %ustr_ucat.exit
  %47 = load i32, ptr %15, align 4, !tbaa !13
  %.not.i11 = icmp sgt i32 %47, %38
  br i1 %.not.i11, label %62, label %48

48:                                               ; preds = %46
  %49 = icmp slt i32 %37, 126
  %50 = shl nuw nsw i32 %38, 1
  %51 = add nuw nsw i32 %50, 129
  %52 = and i32 %51, 2147483520
  %53 = select i1 %49, i32 128, i32 %52
  %54 = shl nuw i32 %53, 1
  %55 = or disjoint i32 %54, 2
  %56 = zext i32 %55 to i64
  %57 = tail call ptr @uprv_realloc_77(ptr noundef nonnull %39, i64 noundef %56) #9
  store ptr %57, ptr %0, align 8, !tbaa !8
  %58 = icmp eq ptr %57, null
  br i1 %58, label %59, label %ustr_resize.exit.i13

59:                                               ; preds = %48
  store i32 7, ptr %2, align 4, !tbaa !4
  store i32 0, ptr %17, align 8, !tbaa !12
  br label %ustr_resize.exit.i13

ustr_resize.exit.i13:                             ; preds = %59, %48
  %.sink.i14 = phi i32 [ 0, %59 ], [ %53, %48 ]
  store i32 %.sink.i14, ptr %15, align 4, !tbaa !13
  %60 = load i32, ptr %2, align 4, !tbaa !4
  %61 = icmp sgt i32 %60, 0
  br i1 %61, label %ustr_ucat.exit17, label %ustr_resize.exit._crit_edge.i15

ustr_resize.exit._crit_edge.i15:                  ; preds = %ustr_resize.exit.i13
  %.pre13.i16 = load i32, ptr %17, align 8, !tbaa !12
  %.pre = sext i32 %.pre13.i16 to i64
  br label %62

62:                                               ; preds = %ustr_resize.exit._crit_edge.i15, %46
  %.pre-phi = phi i64 [ %.pre, %ustr_resize.exit._crit_edge.i15 ], [ %40, %46 ]
  %63 = phi ptr [ %57, %ustr_resize.exit._crit_edge.i15 ], [ %39, %46 ]
  %64 = getelementptr inbounds i16, ptr %63, i64 %.pre-phi
  store i16 %44, ptr %64, align 2
  %65 = load i32, ptr %17, align 8, !tbaa !12
  %66 = add nsw i32 %65, 1
  store i32 %66, ptr %17, align 8, !tbaa !12
  %67 = load ptr, ptr %0, align 8, !tbaa !8
  %68 = sext i32 %66 to i64
  %69 = getelementptr inbounds i16, ptr %67, i64 %68
  store i16 0, ptr %69, align 2, !tbaa !14
  br label %ustr_ucat.exit17

70:                                               ; preds = %6
  %71 = trunc i32 %1 to i16
  %72 = load i32, ptr %2, align 4, !tbaa !4
  %73 = icmp sgt i32 %72, 0
  br i1 %73, label %ustr_ucat.exit17, label %74

74:                                               ; preds = %70
  %75 = getelementptr inbounds nuw i8, ptr %0, i64 12
  %76 = load i32, ptr %75, align 4, !tbaa !13
  %77 = getelementptr inbounds nuw i8, ptr %0, i64 8
  %78 = load i32, ptr %77, align 8, !tbaa !12
  %.not.i18 = icmp sgt i32 %76, %78
  %.pre.i19 = load ptr, ptr %0, align 8, !tbaa !8
  br i1 %.not.i18, label %93, label %79

79:                                               ; preds = %74
  %80 = icmp slt i32 %78, 127
  %81 = shl nuw nsw i32 %78, 1
  %82 = add nuw nsw i32 %81, 129
  %83 = and i32 %82, 2147483520
  %84 = select i1 %80, i32 128, i32 %83
  %85 = shl nuw i32 %84, 1
  %86 = or disjoint i32 %85, 2
  %87 = zext i32 %86 to i64
  %88 = tail call ptr @uprv_realloc_77(ptr noundef %.pre.i19, i64 noundef %87) #9
  store ptr %88, ptr %0, align 8, !tbaa !8
  %89 = icmp eq ptr %88, null
  br i1 %89, label %90, label %ustr_resize.exit.i20

90:                                               ; preds = %79
  store i32 7, ptr %2, align 4, !tbaa !4
  store i32 0, ptr %77, align 8, !tbaa !12
  br label %ustr_resize.exit.i20

ustr_resize.exit.i20:                             ; preds = %90, %79
  %.sink.i21 = phi i32 [ 0, %90 ], [ %84, %79 ]
  store i32 %.sink.i21, ptr %75, align 4, !tbaa !13
  %91 = load i32, ptr %2, align 4, !tbaa !4
  %92 = icmp sgt i32 %91, 0
  br i1 %92, label %ustr_ucat.exit17, label %ustr_resize.exit._crit_edge.i22

ustr_resize.exit._crit_edge.i22:                  ; preds = %ustr_resize.exit.i20
  %.pre13.i23 = load i32, ptr %77, align 8, !tbaa !12
  br label %93

93:                                               ; preds = %ustr_resize.exit._crit_edge.i22, %74
  %94 = phi i32 [ %78, %74 ], [ %.pre13.i23, %ustr_resize.exit._crit_edge.i22 ]
  %95 = phi ptr [ %.pre.i19, %74 ], [ %88, %ustr_resize.exit._crit_edge.i22 ]
  %96 = sext i32 %94 to i64
  %97 = getelementptr inbounds i16, ptr %95, i64 %96
  store i16 %71, ptr %97, align 2
  %98 = load i32, ptr %77, align 8, !tbaa !12
  %99 = add nsw i32 %98, 1
  store i32 %99, ptr %77, align 8, !tbaa !12
  %100 = load ptr, ptr %0, align 8, !tbaa !8
  %101 = sext i32 %99 to i64
  %102 = getelementptr inbounds i16, ptr %100, i64 %101
  store i16 0, ptr %102, align 2, !tbaa !14
  br label %ustr_ucat.exit17

ustr_ucat.exit17:                                 ; preds = %ustr_resize.exit.i, %8, %93, %ustr_resize.exit.i20, %70, %62, %ustr_resize.exit.i13, %ustr_ucat.exit, %5
  ret void
}